target datalayout = "e-m:e-p270:32:32-p271:32:32-p272:64:64-i64:64-i128:128-f80:128-n8:16:32:64-S128"
target triple = "x86_64-pc-linux-gnu"

; Function Attrs: nounwind uwtable
define i32 @ff_id3v2_tag_len(ptr noundef %0) #0 {
  %2 = alloca ptr, align 8
  %3 = alloca i32, align 4
  store ptr %0, ptr %2, align 8, !tbaa !4
  call void @llvm.lifetime.start.p0(i64 4, ptr %3) #10
  %4 = load ptr, ptr %2, align 8, !tbaa !4
  %5 = getelementptr inbounds i8, ptr %4, i64 6
  %6 = load i8, ptr %5, align 1, !tbaa !9
  %7 = zext i8 %6 to i32
  %8 = and i32 %7, 127
  %9 = shl i32 %8, 21
  %10 = load ptr, ptr %2, align 8, !tbaa !4
  %11 = getelementptr inbounds i8, ptr %10, i64 7
  %12 = load i8, ptr %11, align 1, !tbaa !9
  %13 = zext i8 %12 to i32
  %14 = and i32 %13, 127
  %15 = shl i32 %14, 14
  %16 = add nsw i32 %9, %15
  %17 = load ptr, ptr %2, align 8, !tbaa !4
  %18 = getelementptr inbounds i8, ptr %17, i64 8
  %19 = load i8, ptr %18, align 1, !tbaa !9
  %20 = zext i8 %19 to i32
  %21 = and i32 %20, 127
  %22 = shl i32 %21, 7
  %23 = add nsw i32 %16, %22
  %24 = load ptr, ptr %2, align 8, !tbaa !4
  %25 = getelementptr inbounds i8, ptr %24, i64 9
  %26 = load i8, ptr %25, align 1, !tbaa !9
  %27 = zext i8 %26 to i32
  %28 = and i32 %27, 127
  %29 = add nsw i32 %23, %28
  %30 = add nsw i32 %29, 10
  store i32 %30, ptr %3, align 4, !tbaa !10
  %31 = load ptr, ptr %2, align 8, !tbaa !4
  %32 = getelementptr inbounds i8, ptr %31, i64 5
  %33 = load i8, ptr %32, align 1, !tbaa !9
  %34 = zext i8 %33 to i32
  %35 = and i32 %34, 16
  %36 = icmp ne i32 %35, 0
  br i1 %36, label %37, label %40

37:                                               ; preds = %1
  %38 = load i32, ptr %3, align 4, !tbaa !10
  %39 = add nsw i32 %38, 10
  store i32 %39, ptr %3, align 4, !tbaa !10
  br label %40

40:                                               ; preds = %37, %1
  %41 = load i32, ptr %3, align 4, !tbaa !10
  call void @llvm.lifetime.end.p0(i64 4, ptr %3) #10
  ret i32 %41
}