; Function Attrs: mustprogress nofree norecurse nosync nounwind willreturn memory(argmem: read) uwtable
define range(i32 10, 268435476) i32 @ff_id3v2_tag_len(ptr noundef readonly captures(none) %0) local_unnamed_addr #0 {
  %2 = getelementptr inbounds nuw i8, ptr %0, i64 6
  %3 = load i8, ptr %2, align 1, !tbaa !4
  %4 = and i8 %3, 127
  %5 = zext nneg i8 %4 to i32
  %6 = shl nuw nsw i32 %5, 21
  %7 = getelementptr inbounds nuw i8, ptr %0, i64 7
  %8 = load i8, ptr %7, align 1, !tbaa !4
  %9 = and i8 %8, 127
  %10 = zext nneg i8 %9 to i32
  %11 = shl nuw nsw i32 %10, 14
  %12 = or disjoint i32 %11, %6
  %13 = getelementptr inbounds nuw i8, ptr %0, i64 8
  %14 = load i8, ptr %13, align 1, !tbaa !4
  %15 = and i8 %14, 127
  %16 = zext nneg i8 %15 to i32
  %17 = shl nuw nsw i32 %16, 7
  %18 = or disjoint i32 %12, %17
  %19 = getelementptr inbounds nuw i8, ptr %0, i64 9
  %20 = load i8, ptr %19, align 1, !tbaa !4
  %21 = and i8 %20, 127
  %22 = zext nneg i8 %21 to i32
  %23 = or disjoint i32 %18, %22
  %24 = getelementptr inbounds nuw i8, ptr %0, i64 5
  %25 = load i8, ptr %24, align 1, !tbaa !4
  %26 = and i8 %25, 16
  %.not = icmp eq i8 %26, 0
  %spec.select.v = select i1 %.not, i32 10, i32 20
  %spec.select = add nuw nsw i32 %23, %spec.select.v
  ret i32 %spec.select
}